target datalayout = "e-m:e-p270:32:32-p271:32:32-p272:64:64-i64:64-i128:128-f80:128-n8:16:32:64-S128"
target triple = "x86_64-pc-linux-gnu"

%struct.strbuf = type { i64, i64, ptr }
%struct.git_graph = type { ptr, ptr, i32, i32, i32, i32, i32, i32, i32, i32, i32, i32, i32, i32, i32, i32, ptr, ptr, ptr, ptr, i16, %struct.strbuf }

; Function Attrs: nounwind uwtable
define dso_local void @graph_clear(ptr noundef %0) #0 {
  %2 = alloca ptr, align 8
  store ptr %0, ptr %2, align 8, !tbaa !28
  %3 = load ptr, ptr %2, align 8, !tbaa !28
  %4 = icmp ne ptr %3, null
  br i1 %4, label %6, label %5

5:                                                ; preds = %1
  br label %22

6:                                                ; preds = %1
  %7 = load ptr, ptr %2, align 8, !tbaa !28
  %8 = getelementptr inbounds nuw %struct.git_graph, ptr %7, i32 0, i32 16
  %9 = load ptr, ptr %8, align 8, !tbaa !93
  call void @free(ptr noundef %9) #8
  %10 = load ptr, ptr %2, align 8, !tbaa !28
  %11 = getelementptr inbounds nuw %struct.git_graph, ptr %10, i32 0, i32 17
  %12 = load ptr, ptr %11, align 8, !tbaa !94
  call void @free(ptr noundef %12) #8
  %13 = load ptr, ptr %2, align 8, !tbaa !28
  %14 = getelementptr inbounds nuw %struct.git_graph, ptr %13, i32 0, i32 18
  %15 = load ptr, ptr %14, align 8, !tbaa !95
  call void @free(ptr noundef %15) #8
  %16 = load ptr, ptr %2, align 8, !tbaa !28
  %17 = getelementptr inbounds nuw %struct.git_graph, ptr %16, i32 0, i32 19
  %18 = load ptr, ptr %17, align 8, !tbaa !96
  call void @free(ptr noundef %18) #8
  %19 = load ptr, ptr %2, align 8, !tbaa !28
  %20 = getelementptr inbounds nuw %struct.git_graph, ptr %19, i32 0, i32 21
  call void @strbuf_release(ptr noundef %20)
  %21 = load ptr, ptr %2, align 8, !tbaa !28
  call void @free(ptr noundef %21) #8
  br label %22

22:                                               ; preds = %6, %5
  ret void
}