; Function Attrs: nounwind uwtable
define dso_local void @graph_clear(ptr noundef %0) local_unnamed_addr #2 {
  %.not = icmp eq ptr %0, null
  br i1 %.not, label %12, label %2

2:                                                ; preds = %1
  %3 = getelementptr inbounds nuw i8, ptr %0, i64 72
  %4 = load ptr, ptr %3, align 8, !tbaa !86
  tail call void @free(ptr noundef %4) #15
  %5 = getelementptr inbounds nuw i8, ptr %0, i64 80
  %6 = load ptr, ptr %5, align 8, !tbaa !87
  tail call void @free(ptr noundef %6) #15
  %7 = getelementptr inbounds nuw i8, ptr %0, i64 88
  %8 = load ptr, ptr %7, align 8, !tbaa !88
  tail call void @free(ptr noundef %8) #15
  %9 = getelementptr inbounds nuw i8, ptr %0, i64 96
  %10 = load ptr, ptr %9, align 8, !tbaa !89
  tail call void @free(ptr noundef %10) #15
  %11 = getelementptr inbounds nuw i8, ptr %0, i64 112
  tail call void @strbuf_release(ptr noundef nonnull %11) #15
  tail call void @free(ptr noundef nonnull %0) #15
  br label %12

12:                                               ; preds = %1, %2
  ret void
}